; Function Attrs: mustprogress uwtable
define dso_local i64 @_ZN5cmsys11SystemTools15ChangeDirectoryERKNSt7__cxx1112basic_stringIcSt11char_traitsIcESaIcEEE(ptr noundef nonnull readonly align 8 captures(none) dereferenceable(32) %0) local_unnamed_addr #6 align 2 {
  %2 = load ptr, ptr %0, align 8, !tbaa !21
  %3 = tail call noundef i32 @chdir(ptr noundef %2) #39
  %4 = icmp slt i32 %3, 0
  br i1 %4, label %5, label %7

5:                                                ; preds = %1
  %6 = tail call i64 @_ZN5cmsys6Status11POSIX_errnoEv()
  br label %7

7:                                                ; preds = %1, %5
  %.sroa.0.0 = phi i64 [ %6, %5 ], [ 0, %1 ]
  ret i64 %.sroa.0.0
}